target datalayout = "e-m:e-p270:32:32-p271:32:32-p272:64:64-i64:64-i128:128-f80:128-n8:16:32:64-S128"
target triple = "x86_64-pc-linux-gnu"

@.str.54 = private unnamed_addr constant [3 x i8] c"rb\00", align 1
@.str.55 = private unnamed_addr constant [3 x i8] c"wb\00", align 1
@.str.56 = private unnamed_addr constant [36 x i8] c"Cannot open file \22%s\22 for reading.\0A\00", align 1
@.str.57 = private unnamed_addr constant [10 x i8] c".type fd\0A\00", align 1
@.str.58 = private unnamed_addr constant [8 x i8] c"END_SDF\00", align 1
@.str.59 = private unnamed_addr constant [4 x i8] c"SDF\00", align 1
@.str.60 = private unnamed_addr constant [5 x i8] c" \09\0D\0A\00", align 1
@.str.61 = private unnamed_addr constant [7 x i8] c".i %d\0A\00", align 1
@.str.62 = private unnamed_addr constant [7 x i8] c".o %d\0A\00", align 1
@.str.63 = private unnamed_addr constant [7 x i8] c".p %d\0A\00", align 1
@.str.64 = private unnamed_addr constant [3 x i8] c"%s\00", align 1
@.str.65 = private unnamed_addr constant [4 x i8] c".e\0A\00", align 1

; Function Attrs: nounwind uwtable
define void @Io_TransformSF2PLA(ptr noundef %0, ptr noundef %1) #0 {
  %3 = alloca ptr, align 8
  %4 = alloca ptr, align 8
  %5 = alloca i32, align 4
  %6 = alloca i32, align 4
  %7 = alloca ptr, align 8
  %8 = alloca ptr, align 8
  %9 = alloca ptr, align 8
  %10 = alloca ptr, align 8
  %11 = alloca ptr, align 8
  store ptr %0, ptr %3, align 8
  store ptr %1, ptr %4, align 8
  store i32 0, ptr %5, align 4
  store i32 1000000, ptr %6, align 4
  %12 = load ptr, ptr %3, align 8
  %13 = call noalias ptr @fopen(ptr noundef %12, ptr noundef @.str.54)
  store ptr %13, ptr %9, align 8
  %14 = load ptr, ptr %4, align 8
  %15 = call noalias ptr @fopen(ptr noundef %14, ptr noundef @.str.55)
  store ptr %15, ptr %10, align 8
  %16 = load ptr, ptr %9, align 8
  %17 = icmp eq ptr %16, null
  br i1 %17, label %18, label %27

18:                                               ; preds = %2
  %19 = load ptr, ptr %10, align 8
  %20 = icmp ne ptr %19, null
  br i1 %20, label %21, label %24

21:                                               ; preds = %18
  %22 = load ptr, ptr %10, align 8
  %23 = call i32 @fclose(ptr noundef %22)
  br label %24

24:                                               ; preds = %21, %18
  %25 = load ptr, ptr %3, align 8
  %26 = call i32 (ptr, ...) @printf(ptr noundef @.str.56, ptr noundef %25)
  br label %113

27:                                               ; preds = %2
  %28 = load ptr, ptr %10, align 8
  %29 = icmp eq ptr %28, null
  br i1 %29, label %30, label %39

30:                                               ; preds = %27
  %31 = load ptr, ptr %9, align 8
  %32 = icmp ne ptr %31, null
  br i1 %32, label %33, label %36

33:                                               ; preds = %30
  %34 = load ptr, ptr %9, align 8
  %35 = call i32 @fclose(ptr noundef %34)
  br label %36

36:                                               ; preds = %33, %30
  %37 = load ptr, ptr %4, align 8
  %38 = call i32 (ptr, ...) @printf(ptr noundef @.str.56, ptr noundef %37)
  br label %113

39:                                               ; preds = %27
  %40 = load i32, ptr %6, align 4
  %41 = sext i32 %40 to i64
  %42 = mul i64 1, %41
  %43 = call noalias ptr @malloc(i64 noundef %42) #10
  store ptr %43, ptr %7, align 8
  %44 = load ptr, ptr %10, align 8
  %45 = call i32 (ptr, ptr, ...) @fprintf(ptr noundef %44, ptr noundef @.str.57) #9
  br label %46

46:                                               ; preds = %99, %39
  %47 = load ptr, ptr %7, align 8
  %48 = load i32, ptr %6, align 4
  %49 = load ptr, ptr %9, align 8
  %50 = call ptr @fgets(ptr noundef %47, i32 noundef %48, ptr noundef %49)
  %51 = icmp ne ptr %50, null
  br i1 %51, label %52, label %100

52:                                               ; preds = %46
  %53 = load ptr, ptr %7, align 8
  %54 = call ptr @strstr(ptr noundef %53, ptr noundef @.str.58) #8
  %55 = icmp ne ptr %54, null
  br i1 %55, label %56, label %57

56:                                               ; preds = %52
  br label %100

57:                                               ; preds = %52
  %58 = load ptr, ptr %7, align 8
  %59 = call ptr @strstr(ptr noundef %58, ptr noundef @.str.59) #8
  %60 = icmp ne ptr %59, null
  br i1 %60, label %61, label %91

61:                                               ; preds = %57
  %62 = load ptr, ptr %7, align 8
  %63 = load i32, ptr %6, align 4
  %64 = load ptr, ptr %9, align 8
  %65 = call ptr @fgets(ptr noundef %62, i32 noundef %63, ptr noundef %64)
  store ptr %65, ptr %11, align 8
  %66 = load ptr, ptr %7, align 8
  %67 = call ptr @strtok(ptr noundef %66, ptr noundef @.str.60) #9
  store ptr %67, ptr %8, align 8
  %68 = icmp ne ptr %67, null
  br i1 %68, label %69, label %74

69:                                               ; preds = %61
  %70 = load ptr, ptr %10, align 8
  %71 = load ptr, ptr %8, align 8
  %72 = call i32 @atoi(ptr noundef %71) #8
  %73 = call i32 (ptr, ptr, ...) @fprintf(ptr noundef %70, ptr noundef @.str.61, i32 noundef %72) #9
  br label %74

74:                                               ; preds = %69, %61
  %75 = call ptr @strtok(ptr noundef null, ptr noundef @.str.60) #9
  store ptr %75, ptr %8, align 8
  %76 = icmp ne ptr %75, null
  br i1 %76, label %77, label %82

77:                                               ; preds = %74
  %78 = load ptr, ptr %10, align 8
  %79 = load ptr, ptr %8, align 8
  %80 = call i32 @atoi(ptr noundef %79) #8
  %81 = call i32 (ptr, ptr, ...) @fprintf(ptr noundef %78, ptr noundef @.str.62, i32 noundef %80) #9
  br label %82

82:                                               ; preds = %77, %74
  %83 = call ptr @strtok(ptr noundef null, ptr noundef @.str.60) #9
  store ptr %83, ptr %8, align 8
  %84 = icmp ne ptr %83, null
  br i1 %84, label %85, label %90

85:                                               ; preds = %82
  %86 = load ptr, ptr %10, align 8
  %87 = load ptr, ptr %8, align 8
  %88 = call i32 @atoi(ptr noundef %87) #8
  %89 = call i32 (ptr, ptr, ...) @fprintf(ptr noundef %86, ptr noundef @.str.63, i32 noundef %88) #9
  br label %90

90:                                               ; preds = %85, %82
  store i32 1, ptr %5, align 4
  br label %99

91:                                               ; preds = %57
  %92 = load i32, ptr %5, align 4
  %93 = icmp ne i32 %92, 0
  br i1 %93, label %94, label %98

94:                                               ; preds = %91
  %95 = load ptr, ptr %10, align 8
  %96 = load ptr, ptr %7, align 8
  %97 = call i32 (ptr, ptr, ...) @fprintf(ptr noundef %95, ptr noundef @.str.64, ptr noundef %96) #9
  br label %98

98:                                               ; preds = %94, %91
  br label %99

99:                                               ; preds = %98, %90
  br label %46, !llvm.loop !12

100:                                              ; preds = %56, %46
  %101 = load ptr, ptr %10, align 8
  %102 = call i32 (ptr, ptr, ...) @fprintf(ptr noundef %101, ptr noundef @.str.65) #9
  %103 = load ptr, ptr %9, align 8
  %104 = call i32 @fclose(ptr noundef %103)
  %105 = load ptr, ptr %10, align 8
  %106 = call i32 @fclose(ptr noundef %105)
  %107 = load ptr, ptr %7, align 8
  %108 = icmp ne ptr %107, null
  br i1 %108, label %109, label %111

109:                                              ; preds = %100
  %110 = load ptr, ptr %7, align 8
  call void @free(ptr noundef %110) #9
  store ptr null, ptr %7, align 8
  br label %112

111:                                              ; preds = %100
  br label %112

112:                                              ; preds = %111, %109
  br label %113

113:                                              ; preds = %112, %36, %24
  ret void
}