; Function Attrs: nounwind uwtable
define void @Io_TransformSF2PLA(ptr noundef %0, ptr noundef %1) local_unnamed_addr #0 {
  %3 = tail call noalias ptr @fopen(ptr noundef %0, ptr noundef nonnull @.str.54)
  %4 = tail call noalias ptr @fopen(ptr noundef %1, ptr noundef nonnull @.str.55)
  %5 = icmp eq ptr %3, null
  %.not48 = icmp eq ptr %4, null
  br i1 %5, label %6, label %11

6:                                                ; preds = %2
  br i1 %.not48, label %9, label %7

7:                                                ; preds = %6
  %8 = tail call i32 @fclose(ptr noundef nonnull %4)
  br label %9

9:                                                ; preds = %7, %6
  %10 = tail call i32 (ptr, ...) @printf(ptr noundef nonnull dereferenceable(1) @.str.56, ptr noundef %0)
  br label %46

11:                                               ; preds = %2
  br i1 %.not48, label %12, label %15

12:                                               ; preds = %11
  %13 = tail call i32 @fclose(ptr noundef nonnull %3)
  %14 = tail call i32 (ptr, ...) @printf(ptr noundef nonnull dereferenceable(1) @.str.56, ptr noundef %1)
  br label %46

15:                                               ; preds = %11
  %16 = tail call noalias dereferenceable_or_null(1000000) ptr @malloc(i64 noundef 1000000) #17
  %17 = tail call i64 @fwrite(ptr nonnull @.str.57, i64 9, i64 1, ptr nonnull %4)
  %18 = tail call ptr @fgets(ptr noundef %16, i32 noundef 1000000, ptr noundef nonnull %3)
  %.not49 = icmp eq ptr %18, null
  br i1 %.not49, label %._crit_edge, label %.lr.ph

.lr.ph:                                           ; preds = %15, %40
  %.050 = phi i32 [ %.1, %40 ], [ 0, %15 ]
  %19 = tail call ptr @strstr(ptr noundef nonnull dereferenceable(1) %16, ptr noundef nonnull dereferenceable(1) @.str.58) #15
  %.not41 = icmp eq ptr %19, null
  br i1 %.not41, label %20, label %._crit_edge

20:                                               ; preds = %.lr.ph
  %21 = tail call ptr @strstr(ptr noundef nonnull dereferenceable(1) %16, ptr noundef nonnull dereferenceable(1) @.str.59) #15
  %.not42 = icmp eq ptr %21, null
  br i1 %.not42, label %38, label %22

22:                                               ; preds = %20
  %23 = tail call ptr @fgets(ptr noundef nonnull %16, i32 noundef 1000000, ptr noundef nonnull %3)
  %24 = tail call ptr @strtok(ptr noundef nonnull %16, ptr noundef nonnull @.str.60) #14
  %.not44 = icmp eq ptr %24, null
  br i1 %.not44, label %28, label %25

25:                                               ; preds = %22
  %26 = tail call i32 @atoi(ptr noundef nonnull %24) #15
  %27 = tail call i32 (ptr, ptr, ...) @fprintf(ptr noundef nonnull %4, ptr noundef nonnull @.str.61, i32 noundef %26) #14
  br label %28

28:                                               ; preds = %25, %22
  %29 = tail call ptr @strtok(ptr noundef null, ptr noundef nonnull @.str.60) #14
  %.not45 = icmp eq ptr %29, null
  br i1 %.not45, label %33, label %30

30:                                               ; preds = %28
  %31 = tail call i32 @atoi(ptr noundef nonnull %29) #15
  %32 = tail call i32 (ptr, ptr, ...) @fprintf(ptr noundef nonnull %4, ptr noundef nonnull @.str.62, i32 noundef %31) #14
  br label %33

33:                                               ; preds = %30, %28
  %34 = tail call ptr @strtok(ptr noundef null, ptr noundef nonnull @.str.60) #14
  %.not46 = icmp eq ptr %34, null
  br i1 %.not46, label %40, label %35

35:                                               ; preds = %33
  %36 = tail call i32 @atoi(ptr noundef nonnull %34) #15
  %37 = tail call i32 (ptr, ptr, ...) @fprintf(ptr noundef nonnull %4, ptr noundef nonnull @.str.63, i32 noundef %36) #14
  br label %40

38:                                               ; preds = %20
  %.not43 = icmp eq i32 %.050, 0
  br i1 %.not43, label %40, label %39

39:                                               ; preds = %38
  %fputs = tail call i32 @fputs(ptr nonnull %16, ptr nonnull %4)
  br label %40

40:                                               ; preds = %33, %35, %38, %39
  %.1 = phi i32 [ 1, %39 ], [ 0, %38 ], [ 1, %35 ], [ 1, %33 ]
  %41 = tail call ptr @fgets(ptr noundef nonnull %16, i32 noundef 1000000, ptr noundef nonnull %3)
  %.not = icmp eq ptr %41, null
  br i1 %.not, label %._crit_edge, label %.lr.ph, !llvm.loop !12

._crit_edge:                                      ; preds = %40, %.lr.ph, %15
  %42 = tail call i64 @fwrite(ptr nonnull @.str.65, i64 3, i64 1, ptr nonnull %4)
  %43 = tail call i32 @fclose(ptr noundef nonnull %3)
  %44 = tail call i32 @fclose(ptr noundef nonnull %4)
  %.not47 = icmp eq ptr %16, null
  br i1 %.not47, label %46, label %45

45:                                               ; preds = %._crit_edge
  tail call void @free(ptr noundef nonnull %16) #14
  br label %46

46:                                               ; preds = %45, %._crit_edge, %12, %9
  ret void
}